target datalayout = "e-m:e-p270:32:32-p271:32:32-p272:64:64-i64:64-i128:128-f80:128-n8:16:32:64-S128"
target triple = "x86_64-unknown-linux-gnu"

%"class.re2::Regexp" = type { i8, i8, i16, i16, i16, %union.anon, ptr, %union.anon.0 }
%union.anon = type { ptr }
%union.anon.0 = type { %struct.anon.1 }
%struct.anon.1 = type { i32, ptr }

@_ZN3re26RegexpC1ENS_8RegexpOpENS0_10ParseFlagsE = unnamed_addr alias void (ptr, i32, i32), ptr @_ZN3re26RegexpC2ENS_8RegexpOpENS0_10ParseFlagsE

; Function Attrs: mustprogress nounwind uwtable
define linkonce_odr noundef ptr @_ZN3re26Regexp3subEv(ptr noundef nonnull align 8 dereferenceable(40) %this) #0 comdat align 2 {
entry:
  %retval = alloca ptr, align 8
  %this.addr = alloca ptr, align 8
  store ptr %this, ptr %this.addr, align 8
  %this1 = load ptr, ptr %this.addr, align 8
  %nsub_ = getelementptr inbounds %"class.re2::Regexp", ptr %this1, i32 0, i32 4
  %0 = load i16, ptr %nsub_, align 2
  %conv = zext i16 %0 to i32
  %cmp = icmp sle i32 %conv, 1
  br i1 %cmp, label %if.then, label %if.else

if.then:                                          ; preds = %entry
  %1 = getelementptr inbounds %"class.re2::Regexp", ptr %this1, i32 0, i32 5
  store ptr %1, ptr %retval, align 8
  br label %return

if.else:                                          ; preds = %entry
  %2 = getelementptr inbounds %"class.re2::Regexp", ptr %this1, i32 0, i32 5
  %3 = load ptr, ptr %2, align 8
  store ptr %3, ptr %retval, align 8
  br label %return

return:                                           ; preds = %if.else, %if.then
  %4 = load ptr, ptr %retval, align 8
  ret ptr %4
}

; Function Attrs: mustprogress uwtable
define linkonce_odr void @_ZN3re26Regexp8AllocSubEi(ptr noundef nonnull align 8 dereferenceable(40) %this, i32 noundef %n) #3 comdat align 2 {
entry:
  %this.addr = alloca ptr, align 8
  %n.addr = alloca i32, align 4
  store ptr %this, ptr %this.addr, align 8
  store i32 %n, ptr %n.addr, align 4
  %this1 = load ptr, ptr %this.addr, align 8
  %0 = load i32, ptr %n.addr, align 4
  %cmp = icmp sgt i32 %0, 1
  br i1 %cmp, label %if.then, label %if.end

if.then:                                          ; preds = %entry
  %1 = load i32, ptr %n.addr, align 4
  %conv = sext i32 %1 to i64
  %2 = call { i64, i1 } @llvm.umul.with.overflow.i64(i64 %conv, i64 8)
  %3 = extractvalue { i64, i1 } %2, 1
  %4 = extractvalue { i64, i1 } %2, 0
  %5 = select i1 %3, i64 -1, i64 %4
  %call = call noalias noundef nonnull ptr @_Znam(i64 noundef %5) #19
  %6 = getelementptr inbounds %"class.re2::Regexp", ptr %this1, i32 0, i32 5
  store ptr %call, ptr %6, align 8
  br label %if.end

if.end:                                           ; preds = %if.then, %entry
  %7 = load i32, ptr %n.addr, align 4
  %conv2 = trunc i32 %7 to i16
  %nsub_ = getelementptr inbounds %"class.re2::Regexp", ptr %this1, i32 0, i32 4
  store i16 %conv2, ptr %nsub_, align 2
  ret void
}

; Function Attrs: mustprogress nounwind uwtable
define linkonce_odr noundef i32 @_ZN3re26Regexp11parse_flagsEv(ptr noundef nonnull align 8 dereferenceable(40) %this) #0 comdat align 2 {
entry:
  %this.addr = alloca ptr, align 8
  store ptr %this, ptr %this.addr, align 8
  %this1 = load ptr, ptr %this.addr, align 8
  %parse_flags_ = getelementptr inbounds %"class.re2::Regexp", ptr %this1, i32 0, i32 2
  %0 = load i16, ptr %parse_flags_, align 2
  %conv = zext i16 %0 to i32
  ret i32 %conv
}

; Function Attrs: mustprogress nounwind uwtable
define linkonce_odr noundef i32 @_ZN3re26Regexp2opEv(ptr noundef nonnull align 8 dereferenceable(40) %this) #0 comdat align 2 {
entry:
  %this.addr = alloca ptr, align 8
  store ptr %this, ptr %this.addr, align 8
  %this1 = load ptr, ptr %this.addr, align 8
  %op_ = getelementptr inbounds %"class.re2::Regexp", ptr %this1, i32 0, i32 0
  %0 = load i8, ptr %op_, align 8
  %conv = zext i8 %0 to i32
  ret i32 %conv
}

; Function Attrs: mustprogress uwtable
define noundef ptr @_ZN3re26Regexp15StarPlusOrQuestENS_8RegexpOpEPS0_NS0_10ParseFlagsE(i32 noundef %op, ptr noundef %sub, i32 noundef %flags) #3 align 2 personality ptr @__gxx_personality_v0 {
entry:
  %retval = alloca ptr, align 8
  %op.addr = alloca i32, align 4
  %sub.addr = alloca ptr, align 8
  %flags.addr = alloca i32, align 4
  %re = alloca ptr, align 8
  %exn.slot = alloca ptr, align 8
  %ehselector.slot = alloca i32, align 4
  %re24 = alloca ptr, align 8
  store i32 %op, ptr %op.addr, align 4
  store ptr %sub, ptr %sub.addr, align 8
  store i32 %flags, ptr %flags.addr, align 4
  %0 = load i32, ptr %op.addr, align 4
  %1 = load ptr, ptr %sub.addr, align 8
  %call = call noundef i32 @_ZN3re26Regexp2opEv(ptr noundef nonnull align 8 dereferenceable(40) %1)
  %cmp = icmp eq i32 %0, %call
  br i1 %cmp, label %land.lhs.true, label %if.end

land.lhs.true:                                    ; preds = %entry
  %2 = load i32, ptr %flags.addr, align 4
  %3 = load ptr, ptr %sub.addr, align 8
  %call1 = call noundef i32 @_ZN3re26Regexp11parse_flagsEv(ptr noundef nonnull align 8 dereferenceable(40) %3)
  %cmp2 = icmp eq i32 %2, %call1
  br i1 %cmp2, label %if.then, label %if.end

if.then:                                          ; preds = %land.lhs.true
  %4 = load ptr, ptr %sub.addr, align 8
  store ptr %4, ptr %retval, align 8
  br label %return

if.end:                                           ; preds = %land.lhs.true, %entry
  %5 = load ptr, ptr %sub.addr, align 8
  %call3 = call noundef i32 @_ZN3re26Regexp2opEv(ptr noundef nonnull align 8 dereferenceable(40) %5)
  %cmp4 = icmp eq i32 %call3, 7
  br i1 %cmp4, label %land.lhs.true10, label %lor.lhs.false

lor.lhs.false:                                    ; preds = %if.end
  %6 = load ptr, ptr %sub.addr, align 8
  %call5 = call noundef i32 @_ZN3re26Regexp2opEv(ptr noundef nonnull align 8 dereferenceable(40) %6)
  %cmp6 = icmp eq i32 %call5, 8
  br i1 %cmp6, label %land.lhs.true10, label %lor.lhs.false7

lor.lhs.false7:                                   ; preds = %lor.lhs.false
  %7 = load ptr, ptr %sub.addr, align 8
  %call8 = call noundef i32 @_ZN3re26Regexp2opEv(ptr noundef nonnull align 8 dereferenceable(40) %7)
  %cmp9 = icmp eq i32 %call8, 9
  br i1 %cmp9, label %land.lhs.true10, label %if.end23

land.lhs.true10:                                  ; preds = %lor.lhs.false7, %lor.lhs.false, %if.end
  %8 = load i32, ptr %flags.addr, align 4
  %9 = load ptr, ptr %sub.addr, align 8
  %call11 = call noundef i32 @_ZN3re26Regexp11parse_flagsEv(ptr noundef nonnull align 8 dereferenceable(40) %9)
  %cmp12 = icmp eq i32 %8, %call11
  br i1 %cmp12, label %if.then13, label %if.end23

if.then13:                                        ; preds = %land.lhs.true10
  %10 = load ptr, ptr %sub.addr, align 8
  %call14 = call noundef i32 @_ZN3re26Regexp2opEv(ptr noundef nonnull align 8 dereferenceable(40) %10)
  %cmp15 = icmp eq i32 %call14, 7
  br i1 %cmp15, label %if.then16, label %if.end17

if.then16:                                        ; preds = %if.then13
  %11 = load ptr, ptr %sub.addr, align 8
  store ptr %11, ptr %retval, align 8
  br label %return

if.end17:                                         ; preds = %if.then13
  %call18 = call noalias noundef nonnull ptr @_Znwm(i64 noundef 40) #19
  %12 = load i32, ptr %flags.addr, align 4
  invoke void @_ZN3re26RegexpC1ENS_8RegexpOpENS0_10ParseFlagsE(ptr noundef nonnull align 8 dereferenceable(40) %call18, i32 noundef 7, i32 noundef %12)
          to label %invoke.cont unwind label %lpad

invoke.cont:                                      ; preds = %if.end17
  store ptr %call18, ptr %re, align 8
  %13 = load ptr, ptr %re, align 8
  call void @_ZN3re26Regexp8AllocSubEi(ptr noundef nonnull align 8 dereferenceable(40) %13, i32 noundef 1)
  %14 = load ptr, ptr %sub.addr, align 8
  %call19 = call noundef ptr @_ZN3re26Regexp3subEv(ptr noundef nonnull align 8 dereferenceable(40) %14)
  %arrayidx = getelementptr inbounds ptr, ptr %call19, i64 0
  %15 = load ptr, ptr %arrayidx, align 8
  %call20 = call noundef ptr @_ZN3re26Regexp6IncrefEv(ptr noundef nonnull align 8 dereferenceable(40) %15)
  %16 = load ptr, ptr %re, align 8
  %call21 = call noundef ptr @_ZN3re26Regexp3subEv(ptr noundef nonnull align 8 dereferenceable(40) %16)
  %arrayidx22 = getelementptr inbounds ptr, ptr %call21, i64 0
  store ptr %call20, ptr %arrayidx22, align 8
  %17 = load ptr, ptr %sub.addr, align 8
  call void @_ZN3re26Regexp6DecrefEv(ptr noundef nonnull align 8 dereferenceable(40) %17)
  %18 = load ptr, ptr %re, align 8
  store ptr %18, ptr %retval, align 8
  br label %return

lpad:                                             ; preds = %if.end17
  %19 = landingpad { ptr, i32 }
          cleanup
  %20 = extractvalue { ptr, i32 } %19, 0
  store ptr %20, ptr %exn.slot, align 8
  %21 = extractvalue { ptr, i32 } %19, 1
  store i32 %21, ptr %ehselector.slot, align 4
  call void @_ZdlPv(ptr noundef %call18) #17
  br label %eh.resume

if.end23:                                         ; preds = %land.lhs.true10, %lor.lhs.false7
  %call25 = call noalias noundef nonnull ptr @_Znwm(i64 noundef 40) #19
  %22 = load i32, ptr %op.addr, align 4
  %23 = load i32, ptr %flags.addr, align 4
  invoke void @_ZN3re26RegexpC1ENS_8RegexpOpENS0_10ParseFlagsE(ptr noundef nonnull align 8 dereferenceable(40) %call25, i32 noundef %22, i32 noundef %23)
          to label %invoke.cont27 unwind label %lpad26

invoke.cont27:                                    ; preds = %if.end23
  store ptr %call25, ptr %re24, align 8
  %24 = load ptr, ptr %re24, align 8
  call void @_ZN3re26Regexp8AllocSubEi(ptr noundef nonnull align 8 dereferenceable(40) %24, i32 noundef 1)
  %25 = load ptr, ptr %sub.addr, align 8
  %26 = load ptr, ptr %re24, align 8
  %call28 = call noundef ptr @_ZN3re26Regexp3subEv(ptr noundef nonnull align 8 dereferenceable(40) %26)
  %arrayidx29 = getelementptr inbounds ptr, ptr %call28, i64 0
  store ptr %25, ptr %arrayidx29, align 8
  %27 = load ptr, ptr %re24, align 8
  store ptr %27, ptr %retval, align 8
  br label %return

lpad26:                                           ; preds = %if.end23
  %28 = landingpad { ptr, i32 }
          cleanup
  %29 = extractvalue { ptr, i32 } %28, 0
  store ptr %29, ptr %exn.slot, align 8
  %30 = extractvalue { ptr, i32 } %28, 1
  store i32 %30, ptr %ehselector.slot, align 4
  call void @_ZdlPv(ptr noundef %call25) #17
  br label %eh.resume

return:                                           ; preds = %invoke.cont27, %invoke.cont, %if.then16, %if.then
  %31 = load ptr, ptr %retval, align 8
  ret ptr %31

eh.resume:                                        ; preds = %lpad26, %lpad
  %exn = load ptr, ptr %exn.slot, align 8
  %sel = load i32, ptr %ehselector.slot, align 4
  %lpad.val = insertvalue { ptr, i32 } poison, ptr %exn, 0
  %lpad.val30 = insertvalue { ptr, i32 } %lpad.val, i32 %sel, 1
  resume { ptr, i32 } %lpad.val30
}