; Function Attrs: mustprogress uwtable
define noundef ptr @_ZN3re26Regexp15StarPlusOrQuestENS_8RegexpOpEPS0_NS0_10ParseFlagsE(i32 noundef %op, ptr noundef %sub, i32 noundef %flags) local_unnamed_addr #7 align 2 personality ptr @__gxx_personality_v0 {
entry:
  %0 = load i8, ptr %sub, align 8
  %conv.i = zext i8 %0 to i32
  %cmp = icmp eq i32 %conv.i, %op
  br i1 %cmp, label %land.lhs.true, label %if.end

land.lhs.true:                                    ; preds = %entry
  %parse_flags_.i = getelementptr inbounds i8, ptr %sub, i64 2
  %1 = load i16, ptr %parse_flags_.i, align 2
  %conv.i21 = zext i16 %1 to i32
  %cmp2 = icmp eq i32 %conv.i21, %flags
  br i1 %cmp2, label %return, label %if.end

if.end:                                           ; preds = %land.lhs.true, %entry
  %cmp4 = icmp eq i8 %0, 7
  br i1 %cmp4, label %land.lhs.true10.thread, label %lor.lhs.false

lor.lhs.false:                                    ; preds = %if.end
  %2 = and i32 %conv.i, 254
  %switch = icmp eq i32 %2, 8
  br i1 %switch, label %land.lhs.true10, label %if.end23

land.lhs.true10:                                  ; preds = %lor.lhs.false
  %parse_flags_.i25 = getelementptr inbounds i8, ptr %sub, i64 2
  %3 = load i16, ptr %parse_flags_.i25, align 2
  %conv.i26 = zext i16 %3 to i32
  %cmp12 = icmp eq i32 %conv.i26, %flags
  br i1 %cmp12, label %if.end17, label %if.end23

land.lhs.true10.thread:                           ; preds = %if.end
  %parse_flags_.i2536 = getelementptr inbounds i8, ptr %sub, i64 2
  %4 = load i16, ptr %parse_flags_.i2536, align 2
  %conv.i2637 = zext i16 %4 to i32
  %cmp1238 = icmp eq i32 %conv.i2637, %flags
  br i1 %cmp1238, label %return, label %if.end23

if.end17:                                         ; preds = %land.lhs.true10
  %call18 = tail call noalias noundef nonnull dereferenceable(40) ptr @_Znwm(i64 noundef 40) #29
  invoke void @_ZN3re26RegexpC1ENS_8RegexpOpENS0_10ParseFlagsE(ptr noundef nonnull align 8 dereferenceable(40) %call18, i32 noundef 7, i32 noundef %flags)
          to label %invoke.cont unwind label %lpad

invoke.cont:                                      ; preds = %if.end17
  %nsub_.i = getelementptr inbounds i8, ptr %call18, i64 6
  store i16 1, ptr %nsub_.i, align 2
  %nsub_.i28 = getelementptr inbounds i8, ptr %sub, i64 6
  %5 = load i16, ptr %nsub_.i28, align 2
  %cmp.i = icmp ult i16 %5, 2
  %6 = getelementptr inbounds i8, ptr %sub, i64 8
  %7 = load ptr, ptr %6, align 8
  %retval.0.i = select i1 %cmp.i, ptr %6, ptr %7
  %8 = load ptr, ptr %retval.0.i, align 8
  %call20 = tail call noundef ptr @_ZN3re26Regexp6IncrefEv(ptr noundef nonnull align 8 dereferenceable(40) %8)
  %9 = load i16, ptr %nsub_.i, align 2
  %cmp.i30 = icmp ult i16 %9, 2
  %10 = getelementptr inbounds i8, ptr %call18, i64 8
  %11 = load ptr, ptr %10, align 8
  %retval.0.i31 = select i1 %cmp.i30, ptr %10, ptr %11
  store ptr %8, ptr %retval.0.i31, align 8
  tail call void @_ZN3re26Regexp6DecrefEv(ptr noundef nonnull align 8 dereferenceable(40) %sub)
  br label %return

lpad:                                             ; preds = %if.end17
  %12 = landingpad { ptr, i32 }
          cleanup
  br label %eh.resume

if.end23:                                         ; preds = %lor.lhs.false, %land.lhs.true10.thread, %land.lhs.true10
  %call25 = tail call noalias noundef nonnull dereferenceable(40) ptr @_Znwm(i64 noundef 40) #29
  invoke void @_ZN3re26RegexpC1ENS_8RegexpOpENS0_10ParseFlagsE(ptr noundef nonnull align 8 dereferenceable(40) %call25, i32 noundef %op, i32 noundef %flags)
          to label %invoke.cont27 unwind label %lpad26

invoke.cont27:                                    ; preds = %if.end23
  %nsub_.i32 = getelementptr inbounds i8, ptr %call25, i64 6
  store i16 1, ptr %nsub_.i32, align 2
  %13 = getelementptr inbounds i8, ptr %call25, i64 8
  store ptr %sub, ptr %13, align 8
  br label %return

lpad26:                                           ; preds = %if.end23
  %14 = landingpad { ptr, i32 }
          cleanup
  br label %eh.resume

return:                                           ; preds = %land.lhs.true10.thread, %land.lhs.true, %invoke.cont27, %invoke.cont
  %retval.0 = phi ptr [ %call18, %invoke.cont ], [ %call25, %invoke.cont27 ], [ %sub, %land.lhs.true ], [ %sub, %land.lhs.true10.thread ]
  ret ptr %retval.0

eh.resume:                                        ; preds = %lpad26, %lpad
  %call25.sink = phi ptr [ %call25, %lpad26 ], [ %call18, %lpad ]
  %.pn = phi { ptr, i32 } [ %14, %lpad26 ], [ %12, %lpad ]
  tail call void @_ZdlPv(ptr noundef nonnull %call25.sink) #26
  resume { ptr, i32 } %.pn
}